target datalayout = "e-m:e-p270:32:32-p271:32:32-p272:64:64-i64:64-i128:128-f80:128-n8:16:32:64-S128"
target triple = "x86_64-pc-linux-gnu"

%struct.expert_field = type { i32, i32 }
%struct._packet_info = type { ptr, ptr, i32, i32, %struct.nstime_t, %struct.nstime_t, %struct.nstime_t, i8, ptr, ptr, ptr, ptr, %struct._address, %struct._address, %struct._address, %struct._address, %struct._address, %struct._address, i32, ptr, i8, [3 x i8], %struct.anon, i32, i32, i32, i32, ptr, i8, ptr, ptr, i16, i16, i32, i32, i16, i32, i32, ptr, ptr, ptr, i8, i8, i16, i16, i16, i32, i16, i16, ptr, ptr, ptr, ptr, ptr, i32, i32 }
%struct.nstime_t = type { i64, i32 }
%struct._address = type { i32, i32, ptr, ptr }
%struct.anon = type { i8, [3 x i8] }

@hf_pcombinary_stx = internal global i32 0, align 4
@hf_pcombinary_id = internal global i32 0, align 4
@hf_pcombinary_reserved1 = internal global i32 0, align 4
@hf_pcombinary_reserved2 = internal global i32 0, align 4
@hf_pcombinary_reserved3 = internal global i32 0, align 4
@hf_pcombinary_command = internal global i32 0, align 4
@hf_pcombinary_reserved4 = internal global i32 0, align 4
@hf_pcombinary_command_specific = internal global i32 0, align 4
@hf_pcombinary_data_length = internal global i32 0, align 4
@hf_pcombinary_header_checksum = internal global i32 0, align 4
@hf_pcombinary_data = internal global i32 0, align 4
@hf_pcombinary_footer_checksum = internal global i32 0, align 4
@hf_pcombinary_etx = internal global i32 0, align 4
@ett_pcombinary = internal global i32 0, align 4
@.str.46 = private unnamed_addr constant [8 x i8] c"Isn't 0\00", align 1
@ei_pcombinary_reserved1_bad_value = internal global %struct.expert_field zeroinitializer, align 4
@.str.48 = private unnamed_addr constant [11 x i8] c"Isn't 0xfe\00", align 1
@ei_pcombinary_reserved2_bad_value = internal global %struct.expert_field zeroinitializer, align 4
@.str.50 = private unnamed_addr constant [8 x i8] c"Isn't 1\00", align 1
@ei_pcombinary_reserved3_bad_value = internal global %struct.expert_field zeroinitializer, align 4
@ei_pcombinary_reserved4_bad_value = internal global %struct.expert_field zeroinitializer, align 4
@ei_pcombinary_command_unsupported = internal global %struct.expert_field zeroinitializer, align 4
@.str.54 = private unnamed_addr constant [20 x i8] c"Unsupported Command\00", align 1
@proto_pcombinary = internal global i32 0, align 4
@global_pcomtcp_tcp_ports = internal global ptr null, align 8
@.str.103 = private unnamed_addr constant [10 x i8] c"%s (%02x)\00", align 1

; Function Attrs: null_pointer_is_valid sspstrong uwtable
define internal i32 @dissect_pcombinary(ptr noundef %0, ptr noundef %1, ptr noundef %2, ptr noundef %3) #0 {
  %5 = alloca ptr, align 8
  %6 = alloca ptr, align 8
  %7 = alloca ptr, align 8
  %8 = alloca ptr, align 8
  %9 = alloca ptr, align 8
  %10 = alloca ptr, align 8
  %11 = alloca i32, align 4
  %12 = alloca ptr, align 8
  %13 = alloca ptr, align 8
  %14 = alloca ptr, align 8
  %15 = alloca ptr, align 8
  %16 = alloca ptr, align 8
  %17 = alloca i8, align 1
  %18 = alloca ptr, align 8
  store ptr %0, ptr %5, align 8
  store ptr %1, ptr %6, align 8
  store ptr %2, ptr %7, align 8
  store ptr %3, ptr %8, align 8
  call void @llvm.lifetime.start.p0(i64 8, ptr %9) #3
  call void @llvm.lifetime.start.p0(i64 8, ptr %10) #3
  call void @llvm.lifetime.start.p0(i64 4, ptr %11) #3
  store i32 0, ptr %11, align 4
  call void @llvm.lifetime.start.p0(i64 8, ptr %12) #3
  store ptr null, ptr %12, align 8
  call void @llvm.lifetime.start.p0(i64 8, ptr %13) #3
  store ptr null, ptr %13, align 8
  call void @llvm.lifetime.start.p0(i64 8, ptr %14) #3
  store ptr null, ptr %14, align 8
  call void @llvm.lifetime.start.p0(i64 8, ptr %15) #3
  store ptr null, ptr %15, align 8
  call void @llvm.lifetime.start.p0(i64 8, ptr %16) #3
  store ptr null, ptr %16, align 8
  call void @llvm.lifetime.start.p0(i64 1, ptr %17) #3
  call void @llvm.lifetime.start.p0(i64 8, ptr %18) #3
  %19 = load ptr, ptr %7, align 8
  %20 = load i32, ptr @proto_pcombinary, align 4
  %21 = load ptr, ptr %5, align 8
  %22 = load i32, ptr %11, align 4
  %23 = call ptr @proto_tree_add_item(ptr noundef %19, i32 noundef %20, ptr noundef %21, i32 noundef %22, i32 noundef -1, i32 noundef 0)
  store ptr %23, ptr %9, align 8
  %24 = load ptr, ptr %9, align 8
  %25 = load i32, ptr @ett_pcombinary, align 4
  %26 = call ptr @proto_item_add_subtree(ptr noundef %24, i32 noundef %25)
  store ptr %26, ptr %10, align 8
  %27 = load ptr, ptr %10, align 8
  %28 = load i32, ptr @hf_pcombinary_stx, align 4
  %29 = load ptr, ptr %5, align 8
  %30 = load i32, ptr %11, align 4
  %31 = call ptr @proto_tree_add_item(ptr noundef %27, i32 noundef %28, ptr noundef %29, i32 noundef %30, i32 noundef 6, i32 noundef 0)
  %32 = load i32, ptr %11, align 4
  %33 = add i32 %32, 6
  store i32 %33, ptr %11, align 4
  %34 = load ptr, ptr @global_pcomtcp_tcp_ports, align 8
  %35 = load ptr, ptr %6, align 8
  %36 = getelementptr inbounds nuw %struct._packet_info, ptr %35, i32 0, i32 24
  %37 = load i32, ptr %36, align 4
  %38 = call zeroext i1 @value_is_in_range(ptr noundef %34, i32 noundef %37)
  br i1 %38, label %39, label %64

39:                                               ; preds = %4
  %40 = load ptr, ptr %10, align 8
  %41 = load i32, ptr @hf_pcombinary_reserved1, align 4
  %42 = load ptr, ptr %5, align 8
  %43 = load i32, ptr %11, align 4
  %44 = call ptr @proto_tree_add_item(ptr noundef %40, i32 noundef %41, ptr noundef %42, i32 noundef %43, i32 noundef 1, i32 noundef 0)
  store ptr %44, ptr %12, align 8
  %45 = load ptr, ptr %5, align 8
  %46 = load i32, ptr %11, align 4
  %47 = call zeroext i8 @tvb_get_uint8(ptr noundef %45, i32 noundef %46)
  %48 = zext i8 %47 to i32
  %49 = icmp ne i32 %48, 254
  br i1 %49, label %50, label %54

50:                                               ; preds = %39
  %51 = load ptr, ptr %6, align 8
  %52 = load ptr, ptr %12, align 8
  %53 = call ptr (ptr, ptr, ptr, ptr, ...) @expert_add_info_format(ptr noundef %51, ptr noundef %52, ptr noundef @ei_pcombinary_reserved1_bad_value, ptr noundef @.str.48)
  br label %54

54:                                               ; preds = %50, %39
  %55 = load i32, ptr %11, align 4
  %56 = add i32 %55, 1
  store i32 %56, ptr %11, align 4
  %57 = load ptr, ptr %10, align 8
  %58 = load i32, ptr @hf_pcombinary_id, align 4
  %59 = load ptr, ptr %5, align 8
  %60 = load i32, ptr %11, align 4
  %61 = call ptr @proto_tree_add_item(ptr noundef %57, i32 noundef %58, ptr noundef %59, i32 noundef %60, i32 noundef 1, i32 noundef 0)
  %62 = load i32, ptr %11, align 4
  %63 = add i32 %62, 1
  store i32 %63, ptr %11, align 4
  br label %79

64:                                               ; preds = %4
  %65 = load ptr, ptr %10, align 8
  %66 = load i32, ptr @hf_pcombinary_id, align 4
  %67 = load ptr, ptr %5, align 8
  %68 = load i32, ptr %11, align 4
  %69 = call ptr @proto_tree_add_item(ptr noundef %65, i32 noundef %66, ptr noundef %67, i32 noundef %68, i32 noundef 1, i32 noundef 0)
  %70 = load i32, ptr %11, align 4
  %71 = add i32 %70, 1
  store i32 %71, ptr %11, align 4
  %72 = load ptr, ptr %10, align 8
  %73 = load i32, ptr @hf_pcombinary_reserved1, align 4
  %74 = load ptr, ptr %5, align 8
  %75 = load i32, ptr %11, align 4
  %76 = call ptr @proto_tree_add_item(ptr noundef %72, i32 noundef %73, ptr noundef %74, i32 noundef %75, i32 noundef 1, i32 noundef 0)
  %77 = load i32, ptr %11, align 4
  %78 = add i32 %77, 1
  store i32 %78, ptr %11, align 4
  br label %79

79:                                               ; preds = %64, %54
  %80 = load ptr, ptr %10, align 8
  %81 = load i32, ptr @hf_pcombinary_reserved2, align 4
  %82 = load ptr, ptr %5, align 8
  %83 = load i32, ptr %11, align 4
  %84 = call ptr @proto_tree_add_item(ptr noundef %80, i32 noundef %81, ptr noundef %82, i32 noundef %83, i32 noundef 1, i32 noundef 0)
  store ptr %84, ptr %13, align 8
  %85 = load ptr, ptr %5, align 8
  %86 = load i32, ptr %11, align 4
  %87 = call zeroext i8 @tvb_get_uint8(ptr noundef %85, i32 noundef %86)
  %88 = zext i8 %87 to i32
  %89 = icmp ne i32 %88, 1
  br i1 %89, label %90, label %94

90:                                               ; preds = %79
  %91 = load ptr, ptr %6, align 8
  %92 = load ptr, ptr %13, align 8
  %93 = call ptr (ptr, ptr, ptr, ptr, ...) @expert_add_info_format(ptr noundef %91, ptr noundef %92, ptr noundef @ei_pcombinary_reserved2_bad_value, ptr noundef @.str.50)
  br label %94

94:                                               ; preds = %90, %79
  %95 = load i32, ptr %11, align 4
  %96 = add i32 %95, 1
  store i32 %96, ptr %11, align 4
  %97 = load ptr, ptr %10, align 8
  %98 = load i32, ptr @hf_pcombinary_reserved3, align 4
  %99 = load ptr, ptr %5, align 8
  %100 = load i32, ptr %11, align 4
  %101 = call ptr @proto_tree_add_item(ptr noundef %97, i32 noundef %98, ptr noundef %99, i32 noundef %100, i32 noundef 3, i32 noundef -2147483648)
  store ptr %101, ptr %14, align 8
  %102 = load ptr, ptr %5, align 8
  %103 = load i32, ptr %11, align 4
  %104 = call i32 @tvb_get_letoh24(ptr noundef %102, i32 noundef %103)
  %105 = icmp ne i32 %104, 0
  br i1 %105, label %106, label %110

106:                                              ; preds = %94
  %107 = load ptr, ptr %6, align 8
  %108 = load ptr, ptr %14, align 8
  %109 = call ptr (ptr, ptr, ptr, ptr, ...) @expert_add_info_format(ptr noundef %107, ptr noundef %108, ptr noundef @ei_pcombinary_reserved3_bad_value, ptr noundef @.str.46)
  br label %110

110:                                              ; preds = %106, %94
  %111 = load i32, ptr %11, align 4
  %112 = add i32 %111, 3
  store i32 %112, ptr %11, align 4
  %113 = load ptr, ptr %5, align 8
  %114 = load i32, ptr %11, align 4
  %115 = call zeroext i8 @tvb_get_uint8(ptr noundef %113, i32 noundef %114)
  store i8 %115, ptr %17, align 1
  %116 = load ptr, ptr @global_pcomtcp_tcp_ports, align 8
  %117 = load ptr, ptr %6, align 8
  %118 = getelementptr inbounds nuw %struct._packet_info, ptr %117, i32 0, i32 24
  %119 = load i32, ptr %118, align 4
  %120 = call zeroext i1 @value_is_in_range(ptr noundef %116, i32 noundef %119)
  br i1 %120, label %121, label %125

121:                                              ; preds = %110
  %122 = load i8, ptr %17, align 1
  %123 = zext i8 %122 to i32
  %124 = call ptr @try_val_to_str(i32 noundef %123, ptr noundef @pcombinary_command_vals_reply)
  store ptr %124, ptr %18, align 8
  br label %129

125:                                              ; preds = %110
  %126 = load i8, ptr %17, align 1
  %127 = zext i8 %126 to i32
  %128 = call ptr @try_val_to_str(i32 noundef %127, ptr noundef @pcombinary_command_vals_request)
  store ptr %128, ptr %18, align 8
  br label %129

129:                                              ; preds = %125, %121
  %130 = load ptr, ptr %18, align 8
  %131 = icmp ne ptr %130, null
  br i1 %131, label %132, label %143

132:                                              ; preds = %129
  %133 = load ptr, ptr %10, align 8
  %134 = load i32, ptr @hf_pcombinary_command, align 4
  %135 = load ptr, ptr %5, align 8
  %136 = load i32, ptr %11, align 4
  %137 = load i8, ptr %17, align 1
  %138 = zext i8 %137 to i32
  %139 = load ptr, ptr %18, align 8
  %140 = load i8, ptr %17, align 1
  %141 = zext i8 %140 to i32
  %142 = call ptr (ptr, i32, ptr, i32, i32, i32, ptr, ...) @proto_tree_add_uint_format_value(ptr noundef %133, i32 noundef %134, ptr noundef %135, i32 noundef %136, i32 noundef 1, i32 noundef %138, ptr noundef @.str.103, ptr noundef %139, i32 noundef %141)
  br label %152

143:                                              ; preds = %129
  %144 = load ptr, ptr %10, align 8
  %145 = load i32, ptr @hf_pcombinary_command, align 4
  %146 = load ptr, ptr %5, align 8
  %147 = load i32, ptr %11, align 4
  %148 = call ptr @proto_tree_add_item(ptr noundef %144, i32 noundef %145, ptr noundef %146, i32 noundef %147, i32 noundef 1, i32 noundef 0)
  store ptr %148, ptr %16, align 8
  %149 = load ptr, ptr %6, align 8
  %150 = load ptr, ptr %16, align 8
  %151 = call ptr (ptr, ptr, ptr, ptr, ...) @expert_add_info_format(ptr noundef %149, ptr noundef %150, ptr noundef @ei_pcombinary_command_unsupported, ptr noundef @.str.54)
  br label %152

152:                                              ; preds = %143, %132
  %153 = load i32, ptr %11, align 4
  %154 = add i32 %153, 1
  store i32 %154, ptr %11, align 4
  %155 = load ptr, ptr %10, align 8
  %156 = load i32, ptr @hf_pcombinary_reserved4, align 4
  %157 = load ptr, ptr %5, align 8
  %158 = load i32, ptr %11, align 4
  %159 = call ptr @proto_tree_add_item(ptr noundef %155, i32 noundef %156, ptr noundef %157, i32 noundef %158, i32 noundef 1, i32 noundef 0)
  store ptr %159, ptr %15, align 8
  %160 = load ptr, ptr %5, align 8
  %161 = load i32, ptr %11, align 4
  %162 = call zeroext i8 @tvb_get_uint8(ptr noundef %160, i32 noundef %161)
  %163 = zext i8 %162 to i32
  %164 = icmp ne i32 %163, 0
  br i1 %164, label %165, label %169

165:                                              ; preds = %152
  %166 = load ptr, ptr %6, align 8
  %167 = load ptr, ptr %15, align 8
  %168 = call ptr (ptr, ptr, ptr, ptr, ...) @expert_add_info_format(ptr noundef %166, ptr noundef %167, ptr noundef @ei_pcombinary_reserved4_bad_value, ptr noundef @.str.46)
  br label %169

169:                                              ; preds = %165, %152
  %170 = load i32, ptr %11, align 4
  %171 = add i32 %170, 1
  store i32 %171, ptr %11, align 4
  %172 = load ptr, ptr %10, align 8
  %173 = load i32, ptr @hf_pcombinary_command_specific, align 4
  %174 = load ptr, ptr %5, align 8
  %175 = load i32, ptr %11, align 4
  %176 = call ptr @proto_tree_add_item(ptr noundef %172, i32 noundef %173, ptr noundef %174, i32 noundef %175, i32 noundef 6, i32 noundef 0)
  %177 = load i32, ptr %11, align 4
  %178 = add i32 %177, 6
  store i32 %178, ptr %11, align 4
  %179 = load ptr, ptr %10, align 8
  %180 = load i32, ptr @hf_pcombinary_data_length, align 4
  %181 = load ptr, ptr %5, align 8
  %182 = load i32, ptr %11, align 4
  %183 = call ptr @proto_tree_add_item(ptr noundef %179, i32 noundef %180, ptr noundef %181, i32 noundef %182, i32 noundef 2, i32 noundef -2147483648)
  %184 = load i32, ptr %11, align 4
  %185 = add i32 %184, 2
  store i32 %185, ptr %11, align 4
  %186 = load ptr, ptr %10, align 8
  %187 = load i32, ptr @hf_pcombinary_header_checksum, align 4
  %188 = load ptr, ptr %5, align 8
  %189 = load i32, ptr %11, align 4
  %190 = call ptr @proto_tree_add_item(ptr noundef %186, i32 noundef %187, ptr noundef %188, i32 noundef %189, i32 noundef 2, i32 noundef 0)
  %191 = load i32, ptr %11, align 4
  %192 = add i32 %191, 2
  store i32 %192, ptr %11, align 4
  %193 = load ptr, ptr %5, align 8
  %194 = call i32 @tvb_reported_length(ptr noundef %193)
  %195 = sub i32 %194, 27
  %196 = icmp ugt i32 %195, 0
  br i1 %196, label %197, label %206

197:                                              ; preds = %169
  %198 = load ptr, ptr %10, align 8
  %199 = load i32, ptr @hf_pcombinary_data, align 4
  %200 = load ptr, ptr %5, align 8
  %201 = load i32, ptr %11, align 4
  %202 = load ptr, ptr %5, align 8
  %203 = call i32 @tvb_reported_length(ptr noundef %202)
  %204 = sub i32 %203, 27
  %205 = call ptr @proto_tree_add_item(ptr noundef %198, i32 noundef %199, ptr noundef %200, i32 noundef %201, i32 noundef %204, i32 noundef 0)
  br label %206

206:                                              ; preds = %197, %169
  %207 = load ptr, ptr %5, align 8
  %208 = call i32 @tvb_reported_length(ptr noundef %207)
  %209 = sub i32 %208, 27
  %210 = load i32, ptr %11, align 4
  %211 = add i32 %210, %209
  store i32 %211, ptr %11, align 4
  %212 = load ptr, ptr %10, align 8
  %213 = load i32, ptr @hf_pcombinary_footer_checksum, align 4
  %214 = load ptr, ptr %5, align 8
  %215 = load i32, ptr %11, align 4
  %216 = call ptr @proto_tree_add_item(ptr noundef %212, i32 noundef %213, ptr noundef %214, i32 noundef %215, i32 noundef 2, i32 noundef -2147483648)
  %217 = load i32, ptr %11, align 4
  %218 = add i32 %217, 2
  store i32 %218, ptr %11, align 4
  %219 = load ptr, ptr %10, align 8
  %220 = load i32, ptr @hf_pcombinary_etx, align 4
  %221 = load ptr, ptr %5, align 8
  %222 = load i32, ptr %11, align 4
  %223 = call ptr @proto_tree_add_item(ptr noundef %219, i32 noundef %220, ptr noundef %221, i32 noundef %222, i32 noundef 1, i32 noundef 0)
  %224 = load ptr, ptr %5, align 8
  %225 = call i32 @tvb_reported_length(ptr noundef %224)
  call void @llvm.lifetime.end.p0(i64 8, ptr %18) #3
  call void @llvm.lifetime.end.p0(i64 1, ptr %17) #3
  call void @llvm.lifetime.end.p0(i64 8, ptr %16) #3
  call void @llvm.lifetime.end.p0(i64 8, ptr %15) #3
  call void @llvm.lifetime.end.p0(i64 8, ptr %14) #3
  call void @llvm.lifetime.end.p0(i64 8, ptr %13) #3
  call void @llvm.lifetime.end.p0(i64 8, ptr %12) #3
  call void @llvm.lifetime.end.p0(i64 4, ptr %11) #3
  call void @llvm.lifetime.end.p0(i64 8, ptr %10) #3
  call void @llvm.lifetime.end.p0(i64 8, ptr %9) #3
  ret i32 %225
}