; Function Attrs: null_pointer_is_valid sspstrong uwtable
define internal i32 @dissect_pcombinary(ptr noundef %0, ptr noundef %1, ptr noundef %2, ptr readnone captures(none) %3) #0 {
  %5 = load i32, ptr @proto_pcombinary, align 4
  %6 = tail call ptr @proto_tree_add_item(ptr noundef %2, i32 noundef %5, ptr noundef %0, i32 noundef 0, i32 noundef -1, i32 noundef 0)
  %7 = load i32, ptr @ett_pcombinary, align 4
  %8 = tail call ptr @proto_item_add_subtree(ptr noundef %6, i32 noundef %7)
  %9 = load i32, ptr @hf_pcombinary_stx, align 4
  %10 = tail call ptr @proto_tree_add_item(ptr noundef %8, i32 noundef %9, ptr noundef %0, i32 noundef 0, i32 noundef 6, i32 noundef 0)
  %11 = load ptr, ptr @global_pcomtcp_tcp_ports, align 8
  %12 = getelementptr inbounds nuw i8, ptr %1, i64 284
  %13 = load i32, ptr %12, align 4
  %14 = tail call zeroext i1 @value_is_in_range(ptr noundef %11, i32 noundef %13)
  br i1 %14, label %15, label %21

15:                                               ; preds = %4
  %16 = load i32, ptr @hf_pcombinary_reserved1, align 4
  %17 = tail call ptr @proto_tree_add_item(ptr noundef %8, i32 noundef %16, ptr noundef %0, i32 noundef 6, i32 noundef 1, i32 noundef 0)
  %18 = tail call zeroext i8 @tvb_get_uint8(ptr noundef %0, i32 noundef 6)
  %.not = icmp eq i8 %18, -2
  br i1 %.not, label %24, label %19

19:                                               ; preds = %15
  %20 = tail call ptr (ptr, ptr, ptr, ptr, ...) @expert_add_info_format(ptr noundef %1, ptr noundef %17, ptr noundef nonnull @ei_pcombinary_reserved1_bad_value, ptr noundef nonnull @.str.48)
  br label %24

21:                                               ; preds = %4
  %22 = load i32, ptr @hf_pcombinary_id, align 4
  %23 = tail call ptr @proto_tree_add_item(ptr noundef %8, i32 noundef %22, ptr noundef %0, i32 noundef 6, i32 noundef 1, i32 noundef 0)
  br label %24

24:                                               ; preds = %15, %19, %21
  %hf_pcombinary_reserved1.sink = phi ptr [ @hf_pcombinary_reserved1, %21 ], [ @hf_pcombinary_id, %19 ], [ @hf_pcombinary_id, %15 ]
  %25 = load i32, ptr %hf_pcombinary_reserved1.sink, align 4
  %26 = tail call ptr @proto_tree_add_item(ptr noundef %8, i32 noundef %25, ptr noundef %0, i32 noundef 7, i32 noundef 1, i32 noundef 0)
  %27 = load i32, ptr @hf_pcombinary_reserved2, align 4
  %28 = tail call ptr @proto_tree_add_item(ptr noundef %8, i32 noundef %27, ptr noundef %0, i32 noundef 8, i32 noundef 1, i32 noundef 0)
  %29 = tail call zeroext i8 @tvb_get_uint8(ptr noundef %0, i32 noundef 8)
  %.not98 = icmp eq i8 %29, 1
  br i1 %.not98, label %32, label %30

30:                                               ; preds = %24
  %31 = tail call ptr (ptr, ptr, ptr, ptr, ...) @expert_add_info_format(ptr noundef %1, ptr noundef %28, ptr noundef nonnull @ei_pcombinary_reserved2_bad_value, ptr noundef nonnull @.str.50)
  br label %32

32:                                               ; preds = %30, %24
  %33 = load i32, ptr @hf_pcombinary_reserved3, align 4
  %34 = tail call ptr @proto_tree_add_item(ptr noundef %8, i32 noundef %33, ptr noundef %0, i32 noundef 9, i32 noundef 3, i32 noundef -2147483648)
  %35 = tail call i32 @tvb_get_letoh24(ptr noundef %0, i32 noundef 9)
  %.not99 = icmp eq i32 %35, 0
  br i1 %.not99, label %38, label %36

36:                                               ; preds = %32
  %37 = tail call ptr (ptr, ptr, ptr, ptr, ...) @expert_add_info_format(ptr noundef %1, ptr noundef %34, ptr noundef nonnull @ei_pcombinary_reserved3_bad_value, ptr noundef nonnull @.str.46)
  br label %38

38:                                               ; preds = %36, %32
  %39 = tail call zeroext i8 @tvb_get_uint8(ptr noundef %0, i32 noundef 12)
  %40 = load ptr, ptr @global_pcomtcp_tcp_ports, align 8
  %41 = load i32, ptr %12, align 4
  %42 = tail call zeroext i1 @value_is_in_range(ptr noundef %40, i32 noundef %41)
  %43 = zext i8 %39 to i32
  %pcombinary_command_vals_reply.pcombinary_command_vals_request = select i1 %42, ptr @pcombinary_command_vals_reply, ptr @pcombinary_command_vals_request
  %44 = tail call ptr @try_val_to_str(i32 noundef %43, ptr noundef nonnull %pcombinary_command_vals_reply.pcombinary_command_vals_request)
  %.not100 = icmp eq ptr %44, null
  %45 = load i32, ptr @hf_pcombinary_command, align 4
  br i1 %.not100, label %49, label %46

46:                                               ; preds = %38
  %47 = zext i8 %39 to i32
  %48 = tail call ptr (ptr, i32, ptr, i32, i32, i32, ptr, ...) @proto_tree_add_uint_format_value(ptr noundef %8, i32 noundef %45, ptr noundef %0, i32 noundef 12, i32 noundef 1, i32 noundef %47, ptr noundef nonnull @.str.103, ptr noundef nonnull %44, i32 noundef %47)
  br label %52

49:                                               ; preds = %38
  %50 = tail call ptr @proto_tree_add_item(ptr noundef %8, i32 noundef %45, ptr noundef %0, i32 noundef 12, i32 noundef 1, i32 noundef 0)
  %51 = tail call ptr (ptr, ptr, ptr, ptr, ...) @expert_add_info_format(ptr noundef %1, ptr noundef %50, ptr noundef nonnull @ei_pcombinary_command_unsupported, ptr noundef nonnull @.str.54)
  br label %52

52:                                               ; preds = %49, %46
  %53 = load i32, ptr @hf_pcombinary_reserved4, align 4
  %54 = tail call ptr @proto_tree_add_item(ptr noundef %8, i32 noundef %53, ptr noundef %0, i32 noundef 13, i32 noundef 1, i32 noundef 0)
  %55 = tail call zeroext i8 @tvb_get_uint8(ptr noundef %0, i32 noundef 13)
  %.not101 = icmp eq i8 %55, 0
  br i1 %.not101, label %58, label %56

56:                                               ; preds = %52
  %57 = tail call ptr (ptr, ptr, ptr, ptr, ...) @expert_add_info_format(ptr noundef %1, ptr noundef %54, ptr noundef nonnull @ei_pcombinary_reserved4_bad_value, ptr noundef nonnull @.str.46)
  br label %58

58:                                               ; preds = %56, %52
  %59 = load i32, ptr @hf_pcombinary_command_specific, align 4
  %60 = tail call ptr @proto_tree_add_item(ptr noundef %8, i32 noundef %59, ptr noundef %0, i32 noundef 14, i32 noundef 6, i32 noundef 0)
  %61 = load i32, ptr @hf_pcombinary_data_length, align 4
  %62 = tail call ptr @proto_tree_add_item(ptr noundef %8, i32 noundef %61, ptr noundef %0, i32 noundef 20, i32 noundef 2, i32 noundef -2147483648)
  %63 = load i32, ptr @hf_pcombinary_header_checksum, align 4
  %64 = tail call ptr @proto_tree_add_item(ptr noundef %8, i32 noundef %63, ptr noundef %0, i32 noundef 22, i32 noundef 2, i32 noundef 0)
  %65 = tail call i32 @tvb_reported_length(ptr noundef %0)
  %.not102 = icmp eq i32 %65, 27
  br i1 %.not102, label %71, label %66

66:                                               ; preds = %58
  %67 = load i32, ptr @hf_pcombinary_data, align 4
  %68 = tail call i32 @tvb_reported_length(ptr noundef %0)
  %69 = add i32 %68, -27
  %70 = tail call ptr @proto_tree_add_item(ptr noundef %8, i32 noundef %67, ptr noundef %0, i32 noundef 24, i32 noundef %69, i32 noundef 0)
  br label %71

71:                                               ; preds = %66, %58
  %72 = tail call i32 @tvb_reported_length(ptr noundef %0)
  %73 = add i32 %72, -3
  %74 = load i32, ptr @hf_pcombinary_footer_checksum, align 4
  %75 = tail call ptr @proto_tree_add_item(ptr noundef %8, i32 noundef %74, ptr noundef %0, i32 noundef %73, i32 noundef 2, i32 noundef -2147483648)
  %76 = add i32 %72, -1
  %77 = load i32, ptr @hf_pcombinary_etx, align 4
  %78 = tail call ptr @proto_tree_add_item(ptr noundef %8, i32 noundef %77, ptr noundef %0, i32 noundef %76, i32 noundef 1, i32 noundef 0)
  %79 = tail call i32 @tvb_reported_length(ptr noundef %0)
  ret i32 %79
}